target datalayout = "e-m:e-p270:32:32-p271:32:32-p272:64:64-i64:64-i128:128-f80:128-n8:16:32:64-S128"
target triple = "x86_64-pc-linux-gnu"

%struct.slurm_cred_t = type { i32, %union.pthread_rwlock_t, ptr, i32, i16, ptr, i64, ptr, i8 }
%union.pthread_rwlock_t = type { %struct.__pthread_rwlock_arch_t }
%struct.__pthread_rwlock_arch_t = type { i32, i32, i32, i32, i32, i32, i32, i32, i8, [7 x i8], i64, i32 }

@.str.2 = private unnamed_addr constant [35 x i8] c"%s: failed to sign, returning NULL\00", align 1
@__func__.cred_p_create = private unnamed_addr constant [14 x i8] c"cred_p_create\00", align 1

; Function Attrs: nounwind uwtable
define dso_local ptr @cred_p_create(ptr noundef %0, i1 noundef zeroext %1, i16 noundef zeroext %2) #0 {
  %4 = alloca ptr, align 8
  %5 = alloca ptr, align 8
  %6 = alloca i8, align 1
  %7 = alloca i16, align 2
  %8 = alloca ptr, align 8
  %9 = alloca i32, align 4
  %10 = alloca i32, align 4
  store ptr %0, ptr %5, align 8
  %11 = zext i1 %1 to i8
  store i8 %11, ptr %6, align 1
  store i16 %2, ptr %7, align 2
  call void @llvm.lifetime.start.p0(i64 8, ptr %8) #5
  %12 = load ptr, ptr %5, align 8
  %13 = load i16, ptr %7, align 2
  %14 = call ptr @cred_create(ptr noundef %12, i16 noundef zeroext %13)
  store ptr %14, ptr %8, align 8
  %15 = load i8, ptr %6, align 1, !range !8, !noundef !9
  %16 = trunc i8 %15 to i1
  br i1 %16, label %17, label %28

17:                                               ; preds = %3
  %18 = load ptr, ptr %8, align 8
  %19 = getelementptr inbounds nuw %struct.slurm_cred_t, ptr %18, i32 0, i32 2
  %20 = load ptr, ptr %19, align 8
  %21 = call ptr @_encode(ptr noundef %20)
  %22 = load ptr, ptr %8, align 8
  %23 = getelementptr inbounds nuw %struct.slurm_cred_t, ptr %22, i32 0, i32 7
  store ptr %21, ptr %23, align 8
  %24 = icmp ne ptr %21, null
  br i1 %24, label %28, label %25

25:                                               ; preds = %17
  %26 = call i32 (ptr, ...) @slurm_error(ptr noundef @.str.2, ptr noundef @__func__.cred_p_create)
  %27 = load ptr, ptr %8, align 8
  call void @slurm_cred_destroy(ptr noundef %27)
  store ptr null, ptr %4, align 8
  store i32 1, ptr %9, align 4
  br label %52

28:                                               ; preds = %17, %3
  br label %29

29:                                               ; preds = %28
  call void @llvm.lifetime.start.p0(i64 4, ptr %10) #5
  store i32 0, ptr %10, align 4
  %30 = load ptr, ptr %8, align 8
  %31 = getelementptr inbounds nuw %struct.slurm_cred_t, ptr %30, i32 0, i32 7
  %32 = load ptr, ptr %31, align 8
  %33 = icmp ne ptr %32, null
  br i1 %33, label %34, label %41

34:                                               ; preds = %29
  %35 = load ptr, ptr %8, align 8
  %36 = getelementptr inbounds nuw %struct.slurm_cred_t, ptr %35, i32 0, i32 7
  %37 = load ptr, ptr %36, align 8
  %38 = call i64 @strlen(ptr noundef %37) #6
  %39 = trunc i64 %38 to i32
  %40 = add i32 %39, 1
  store i32 %40, ptr %10, align 4
  br label %41

41:                                               ; preds = %34, %29
  %42 = load ptr, ptr %8, align 8
  %43 = getelementptr inbounds nuw %struct.slurm_cred_t, ptr %42, i32 0, i32 7
  %44 = load ptr, ptr %43, align 8
  %45 = load i32, ptr %10, align 4
  %46 = load ptr, ptr %8, align 8
  %47 = getelementptr inbounds nuw %struct.slurm_cred_t, ptr %46, i32 0, i32 2
  %48 = load ptr, ptr %47, align 8
  call void @slurm_packmem(ptr noundef %44, i32 noundef %45, ptr noundef %48)
  call void @llvm.lifetime.end.p0(i64 4, ptr %10) #5
  br label %49

49:                                               ; preds = %41
  br label %50

50:                                               ; preds = %49
  %51 = load ptr, ptr %8, align 8
  store ptr %51, ptr %4, align 8
  store i32 1, ptr %9, align 4
  br label %52

52:                                               ; preds = %50, %25
  call void @llvm.lifetime.end.p0(i64 8, ptr %8) #5
  %53 = load ptr, ptr %4, align 8
  ret ptr %53
}