; Function Attrs: nounwind uwtable
define dso_local ptr @cred_p_create(ptr noundef %0, i1 noundef zeroext %1, i16 noundef zeroext %2) local_unnamed_addr #0 {
  %4 = tail call ptr @cred_create(ptr noundef %0, i16 noundef zeroext %2) #7
  br i1 %1, label %5, label %12

5:                                                ; preds = %3
  %6 = getelementptr inbounds nuw i8, ptr %4, i64 64
  %7 = load ptr, ptr %6, align 8
  %8 = tail call fastcc ptr @_encode(ptr noundef %7)
  %9 = getelementptr inbounds nuw i8, ptr %4, i64 96
  store ptr %8, ptr %9, align 8
  %.not = icmp eq ptr %8, null
  br i1 %.not, label %10, label %.thread

10:                                               ; preds = %5
  %11 = tail call i32 (ptr, ...) @slurm_error(ptr noundef nonnull @.str.2, ptr noundef nonnull @__func__.cred_p_create) #7
  tail call void @slurm_cred_destroy(ptr noundef nonnull %4) #7
  br label %21

12:                                               ; preds = %3
  %.phi.trans.insert = getelementptr inbounds nuw i8, ptr %4, i64 96
  %.pre = load ptr, ptr %.phi.trans.insert, align 8
  %.not14 = icmp eq ptr %.pre, null
  br i1 %.not14, label %17, label %.thread

.thread:                                          ; preds = %5, %12
  %13 = phi ptr [ %.pre, %12 ], [ %8, %5 ]
  %14 = tail call i64 @strlen(ptr noundef nonnull dereferenceable(1) %13) #8
  %15 = trunc i64 %14 to i32
  %16 = add i32 %15, 1
  br label %17

17:                                               ; preds = %.thread, %12
  %18 = phi ptr [ %13, %.thread ], [ null, %12 ]
  %.0 = phi i32 [ %16, %.thread ], [ 0, %12 ]
  %19 = getelementptr inbounds nuw i8, ptr %4, i64 64
  %20 = load ptr, ptr %19, align 8
  tail call void @slurm_packmem(ptr noundef %18, i32 noundef %.0, ptr noundef %20) #7
  br label %21

21:                                               ; preds = %17, %10
  %.012 = phi ptr [ %4, %17 ], [ null, %10 ]
  ret ptr %.012
}